; Function Attrs: mustprogress nounwind uwtable
define internal void @_ZN12_GLOBAL__N_114SynthNexusPassD2Ev(ptr noundef nonnull align 8 dereferenceable(352) %0) unnamed_addr #3 align 2 personality ptr @__gxx_personality_v0 {
  store ptr getelementptr inbounds ({ [12 x ptr] }, ptr @_ZTVN12_GLOBAL__N_114SynthNexusPassE, i64 0, i32 0, i64 2), ptr %0, align 8
  %2 = getelementptr inbounds i8, ptr %0, i64 328
  %3 = load ptr, ptr %2, align 8
  %4 = getelementptr inbounds i8, ptr %0, i64 336
  %5 = load ptr, ptr %4, align 8
  %.not4.i.i.i.i = icmp eq ptr %3, %5
  br i1 %.not4.i.i.i.i, label %_ZSt8_DestroyIPN12_GLOBAL__N_114SynthNexusPass7DSPRuleES2_EvT_S4_RSaIT0_E.exit.i, label %.lr.ph.i.i.i.i

.lr.ph.i.i.i.i:                                   ; preds = %1, %.lr.ph.i.i.i.i
  %.05.i.i.i.i = phi ptr [ %7, %.lr.ph.i.i.i.i ], [ %3, %1 ]
  %6 = getelementptr inbounds i8, ptr %.05.i.i.i.i, i64 16
  tail call void @_ZNSt7__cxx1112basic_stringIcSt11char_traitsIcESaIcEED1Ev(ptr noundef nonnull align 8 dereferenceable(32) %6) #21
  %7 = getelementptr inbounds i8, ptr %.05.i.i.i.i, i64 48
  %.not.i.i.i.i = icmp eq ptr %7, %5
  br i1 %.not.i.i.i.i, label %_ZSt8_DestroyIPN12_GLOBAL__N_114SynthNexusPass7DSPRuleES2_EvT_S4_RSaIT0_E.exitthread-pre-split.i, label %.lr.ph.i.i.i.i, !llvm.loop !6

_ZSt8_DestroyIPN12_GLOBAL__N_114SynthNexusPass7DSPRuleES2_EvT_S4_RSaIT0_E.exitthread-pre-split.i: ; preds = %.lr.ph.i.i.i.i
  %.val.pr.i = load ptr, ptr %2, align 8
  br label %_ZSt8_DestroyIPN12_GLOBAL__N_114SynthNexusPass7DSPRuleES2_EvT_S4_RSaIT0_E.exit.i

_ZSt8_DestroyIPN12_GLOBAL__N_114SynthNexusPass7DSPRuleES2_EvT_S4_RSaIT0_E.exit.i: ; preds = %_ZSt8_DestroyIPN12_GLOBAL__N_114SynthNexusPass7DSPRuleES2_EvT_S4_RSaIT0_E.exitthread-pre-split.i, %1
  %.val.i = phi ptr [ %.val.pr.i, %_ZSt8_DestroyIPN12_GLOBAL__N_114SynthNexusPass7DSPRuleES2_EvT_S4_RSaIT0_E.exitthread-pre-split.i ], [ %3, %1 ]
  %.not.i.i.i = icmp eq ptr %.val.i, null
  br i1 %.not.i.i.i, label %_ZNSt6vectorIN12_GLOBAL__N_114SynthNexusPass7DSPRuleESaIS2_EED2Ev.exit, label %8

8:                                                ; preds = %_ZSt8_DestroyIPN12_GLOBAL__N_114SynthNexusPass7DSPRuleES2_EvT_S4_RSaIT0_E.exit.i
  tail call void @_ZdlPv(ptr noundef nonnull %.val.i) #22
  br label %_ZNSt6vectorIN12_GLOBAL__N_114SynthNexusPass7DSPRuleESaIS2_EED2Ev.exit

_ZNSt6vectorIN12_GLOBAL__N_114SynthNexusPass7DSPRuleESaIS2_EED2Ev.exit: ; preds = %_ZSt8_DestroyIPN12_GLOBAL__N_114SynthNexusPass7DSPRuleES2_EvT_S4_RSaIT0_E.exit.i, %8
  %9 = getelementptr inbounds i8, ptr %0, i64 280
  tail call void @_ZNSt7__cxx1112basic_stringIcSt11char_traitsIcESaIcEED1Ev(ptr noundef nonnull align 8 dereferenceable(32) %9) #21
  %10 = getelementptr inbounds i8, ptr %0, i64 248
  tail call void @_ZNSt7__cxx1112basic_stringIcSt11char_traitsIcESaIcEED1Ev(ptr noundef nonnull align 8 dereferenceable(32) %10) #21
  %11 = getelementptr inbounds i8, ptr %0, i64 216
  tail call void @_ZNSt7__cxx1112basic_stringIcSt11char_traitsIcESaIcEED1Ev(ptr noundef nonnull align 8 dereferenceable(32) %11) #21
  %12 = getelementptr inbounds i8, ptr %0, i64 184
  tail call void @_ZNSt7__cxx1112basic_stringIcSt11char_traitsIcESaIcEED1Ev(ptr noundef nonnull align 8 dereferenceable(32) %12) #21
  store ptr getelementptr inbounds ({ [12 x ptr] }, ptr @_ZTVN5Yosys10ScriptPassE, i64 0, i32 0, i64 2), ptr %0, align 8
  %13 = getelementptr inbounds i8, ptr %0, i64 152
  tail call void @_ZNSt7__cxx1112basic_stringIcSt11char_traitsIcESaIcEED1Ev(ptr noundef nonnull align 8 dereferenceable(32) %13) #21
  %14 = getelementptr inbounds i8, ptr %0, i64 120
  tail call void @_ZNSt7__cxx1112basic_stringIcSt11char_traitsIcESaIcEED1Ev(ptr noundef nonnull align 8 dereferenceable(32) %14) #21
  tail call void @_ZN5Yosys4PassD2Ev(ptr noundef nonnull align 8 dereferenceable(104) %0) #21
  ret void
}